target datalayout = "e-m:e-p270:32:32-p271:32:32-p272:64:64-i64:64-i128:128-f80:128-n8:16:32:64-S128"
target triple = "x86_64-pc-linux-gnu"

%struct.brace_s = type { i8, i8, i64 }

; Function Attrs: inlinehint nounwind uwtable
define internal i64 @to_ssize_t(i64 noundef %0) #4 {
  %2 = alloca i64, align 8
  store i64 %0, ptr %2, align 8, !tbaa !9
  %3 = load i64, ptr %2, align 8, !tbaa !9
  %4 = icmp ule i64 %3, 9223372036854775807
  br i1 %4, label %5, label %7

5:                                                ; preds = %1
  %6 = load i64, ptr %2, align 8, !tbaa !9
  br label %8

7:                                                ; preds = %1
  br label %8

8:                                                ; preds = %7, %5
  %9 = phi i64 [ %6, %5 ], [ 0, %7 ]
  ret i64 %9
}

; Function Attrs: nounwind uwtable
define internal i64 @ic_strlen(ptr noundef %0) #0 {
  %2 = alloca i64, align 8
  %3 = alloca ptr, align 8
  store ptr %0, ptr %3, align 8, !tbaa !11
  %4 = load ptr, ptr %3, align 8, !tbaa !11
  %5 = icmp eq ptr %4, null
  br i1 %5, label %6, label %7

6:                                                ; preds = %1
  store i64 0, ptr %2, align 8
  br label %11

7:                                                ; preds = %1
  %8 = load ptr, ptr %3, align 8, !tbaa !11
  %9 = call i64 @strlen(ptr noundef %8) #14
  %10 = call i64 @to_ssize_t(i64 noundef %9)
  store i64 %10, ptr %2, align 8
  br label %11

11:                                               ; preds = %7, %6
  %12 = load i64, ptr %2, align 8
  ret i64 %12
}

; Function Attrs: nounwind uwtable
define internal i64 @find_matching_brace(ptr noundef %0, i64 noundef %1, ptr noundef %2, ptr noundef %3) #0 {
  %5 = alloca i64, align 8
  %6 = alloca ptr, align 8
  %7 = alloca i64, align 8
  %8 = alloca ptr, align 8
  %9 = alloca ptr, align 8
  %10 = alloca i8, align 1
  %11 = alloca i64, align 8
  %12 = alloca [65 x %struct.brace_s], align 16
  %13 = alloca i64, align 8
  %14 = alloca i64, align 8
  %15 = alloca i64, align 8
  %16 = alloca i32, align 4
  %17 = alloca i8, align 1
  %18 = alloca i8, align 1
  %19 = alloca i64, align 8
  %20 = alloca i64, align 8
  store ptr %0, ptr %6, align 8, !tbaa !11
  store i64 %1, ptr %7, align 8, !tbaa !9
  store ptr %2, ptr %8, align 8, !tbaa !11
  store ptr %3, ptr %9, align 8, !tbaa !226
  %21 = load ptr, ptr %9, align 8, !tbaa !226
  %22 = icmp ne ptr %21, null
  br i1 %22, label %23, label %25

23:                                               ; preds = %4
  %24 = load ptr, ptr %9, align 8, !tbaa !226
  store i8 0, ptr %24, align 1, !tbaa !132
  br label %25

25:                                               ; preds = %23, %4
  call void @llvm.lifetime.start.p0(i64 1, ptr %10) #13
  store i8 1, ptr %10, align 1, !tbaa !132
  call void @llvm.lifetime.start.p0(i64 8, ptr %11) #13
  store i64 -1, ptr %11, align 8, !tbaa !9
  call void @llvm.lifetime.start.p0(i64 1040, ptr %12) #13
  call void @llvm.lifetime.start.p0(i64 8, ptr %13) #13
  store i64 0, ptr %13, align 8, !tbaa !9
  call void @llvm.lifetime.start.p0(i64 8, ptr %14) #13
  %26 = load ptr, ptr %8, align 8, !tbaa !11
  %27 = call i64 @ic_strlen(ptr noundef %26)
  store i64 %27, ptr %14, align 8, !tbaa !9
  call void @llvm.lifetime.start.p0(i64 8, ptr %15) #13
  store i64 0, ptr %15, align 8, !tbaa !9
  br label %28

28:                                               ; preds = %155, %25
  %29 = load i64, ptr %15, align 8, !tbaa !9
  %30 = load ptr, ptr %6, align 8, !tbaa !11
  %31 = call i64 @ic_strlen(ptr noundef %30)
  %32 = icmp slt i64 %29, %31
  br i1 %32, label %34, label %33

33:                                               ; preds = %28
  store i32 2, ptr %16, align 4
  br label %158

34:                                               ; preds = %28
  call void @llvm.lifetime.start.p0(i64 1, ptr %17) #13
  %35 = load ptr, ptr %6, align 8, !tbaa !11
  %36 = load i64, ptr %15, align 8, !tbaa !9
  %37 = getelementptr inbounds i8, ptr %35, i64 %36
  %38 = load i8, ptr %37, align 1, !tbaa !13
  store i8 %38, ptr %17, align 1, !tbaa !13
  call void @llvm.lifetime.start.p0(i64 1, ptr %18) #13
  store i8 0, ptr %18, align 1, !tbaa !132
  call void @llvm.lifetime.start.p0(i64 8, ptr %19) #13
  store i64 0, ptr %19, align 8, !tbaa !9
  br label %39

39:                                               ; preds = %81, %34
  %40 = load i64, ptr %19, align 8, !tbaa !9
  %41 = load i64, ptr %14, align 8, !tbaa !9
  %42 = icmp slt i64 %40, %41
  br i1 %42, label %44, label %43

43:                                               ; preds = %39
  store i32 5, ptr %16, align 4
  br label %84

44:                                               ; preds = %39
  %45 = load i8, ptr %17, align 1, !tbaa !13
  %46 = sext i8 %45 to i32
  %47 = load ptr, ptr %8, align 8, !tbaa !11
  %48 = load i64, ptr %19, align 8, !tbaa !9
  %49 = getelementptr inbounds i8, ptr %47, i64 %48
  %50 = load i8, ptr %49, align 1, !tbaa !13
  %51 = sext i8 %50 to i32
  %52 = icmp eq i32 %46, %51
  br i1 %52, label %53, label %80

53:                                               ; preds = %44
  %54 = load i64, ptr %13, align 8, !tbaa !9
  %55 = icmp sge i64 %54, 64
  br i1 %55, label %56, label %57

56:                                               ; preds = %53
  store i64 -1, ptr %5, align 8
  store i32 1, ptr %16, align 4
  br label %84

57:                                               ; preds = %53
  %58 = load ptr, ptr %8, align 8, !tbaa !11
  %59 = load i64, ptr %19, align 8, !tbaa !9
  %60 = add nsw i64 %59, 1
  %61 = getelementptr inbounds i8, ptr %58, i64 %60
  %62 = load i8, ptr %61, align 1, !tbaa !13
  %63 = load i64, ptr %13, align 8, !tbaa !9
  %64 = getelementptr inbounds [65 x %struct.brace_s], ptr %12, i64 0, i64 %63
  %65 = getelementptr inbounds nuw %struct.brace_s, ptr %64, i32 0, i32 0
  store i8 %62, ptr %65, align 16, !tbaa !319
  %66 = load i64, ptr %15, align 8, !tbaa !9
  %67 = load i64, ptr %13, align 8, !tbaa !9
  %68 = getelementptr inbounds [65 x %struct.brace_s], ptr %12, i64 0, i64 %67
  %69 = getelementptr inbounds nuw %struct.brace_s, ptr %68, i32 0, i32 2
  store i64 %66, ptr %69, align 8, !tbaa !321
  %70 = load i64, ptr %15, align 8, !tbaa !9
  %71 = load i64, ptr %7, align 8, !tbaa !9
  %72 = sub nsw i64 %71, 1
  %73 = icmp eq i64 %70, %72
  %74 = load i64, ptr %13, align 8, !tbaa !9
  %75 = getelementptr inbounds [65 x %struct.brace_s], ptr %12, i64 0, i64 %74
  %76 = getelementptr inbounds nuw %struct.brace_s, ptr %75, i32 0, i32 1
  %77 = zext i1 %73 to i8
  store i8 %77, ptr %76, align 1, !tbaa !322
  %78 = load i64, ptr %13, align 8, !tbaa !9
  %79 = add nsw i64 %78, 1
  store i64 %79, ptr %13, align 8, !tbaa !9
  store i8 1, ptr %18, align 1, !tbaa !132
  store i32 5, ptr %16, align 4
  br label %84

80:                                               ; preds = %44
  br label %81

81:                                               ; preds = %80
  %82 = load i64, ptr %19, align 8, !tbaa !9
  %83 = add nsw i64 %82, 2
  store i64 %83, ptr %19, align 8, !tbaa !9
  br label %39, !llvm.loop !418

84:                                               ; preds = %57, %56, %43
  call void @llvm.lifetime.end.p0(i64 8, ptr %19) #13
  %85 = load i32, ptr %16, align 4
  switch i32 %85, label %152 [
    i32 5, label %86
  ]

86:                                               ; preds = %84
  %87 = load i8, ptr %18, align 1, !tbaa !132, !range !124, !noundef !125
  %88 = trunc i8 %87 to i1
  br i1 %88, label %89, label %90

89:                                               ; preds = %86
  store i32 4, ptr %16, align 4
  br label %152

90:                                               ; preds = %86
  call void @llvm.lifetime.start.p0(i64 8, ptr %20) #13
  store i64 1, ptr %20, align 8, !tbaa !9
  br label %91

91:                                               ; preds = %147, %90
  %92 = load i64, ptr %20, align 8, !tbaa !9
  %93 = load i64, ptr %14, align 8, !tbaa !9
  %94 = icmp slt i64 %92, %93
  br i1 %94, label %96, label %95

95:                                               ; preds = %91
  store i32 8, ptr %16, align 4
  br label %150

96:                                               ; preds = %91
  %97 = load i8, ptr %17, align 1, !tbaa !13
  %98 = sext i8 %97 to i32
  %99 = load ptr, ptr %8, align 8, !tbaa !11
  %100 = load i64, ptr %20, align 8, !tbaa !9
  %101 = getelementptr inbounds i8, ptr %99, i64 %100
  %102 = load i8, ptr %101, align 1, !tbaa !13
  %103 = sext i8 %102 to i32
  %104 = icmp eq i32 %98, %103
  br i1 %104, label %105, label %146

105:                                              ; preds = %96
  %106 = load i64, ptr %13, align 8, !tbaa !9
  %107 = icmp sle i64 %106, 0
  br i1 %107, label %108, label %109

108:                                              ; preds = %105
  store i8 0, ptr %10, align 1, !tbaa !132
  br label %145

109:                                              ; preds = %105
  %110 = load i64, ptr %13, align 8, !tbaa !9
  %111 = sub nsw i64 %110, 1
  %112 = getelementptr inbounds [65 x %struct.brace_s], ptr %12, i64 0, i64 %111
  %113 = getelementptr inbounds nuw %struct.brace_s, ptr %112, i32 0, i32 0
  %114 = load i8, ptr %113, align 16, !tbaa !319
  %115 = sext i8 %114 to i32
  %116 = load i8, ptr %17, align 1, !tbaa !13
  %117 = sext i8 %116 to i32
  %118 = icmp ne i32 %115, %117
  br i1 %118, label %119, label %120

119:                                              ; preds = %109
  store i8 0, ptr %10, align 1, !tbaa !132
  br label %144

120:                                              ; preds = %109
  %121 = load i64, ptr %13, align 8, !tbaa !9
  %122 = add nsw i64 %121, -1
  store i64 %122, ptr %13, align 8, !tbaa !9
  %123 = load i64, ptr %15, align 8, !tbaa !9
  %124 = load i64, ptr %7, align 8, !tbaa !9
  %125 = sub nsw i64 %124, 1
  %126 = icmp eq i64 %123, %125
  br i1 %126, label %127, label %133

127:                                              ; preds = %120
  %128 = load i64, ptr %13, align 8, !tbaa !9
  %129 = getelementptr inbounds [65 x %struct.brace_s], ptr %12, i64 0, i64 %128
  %130 = getelementptr inbounds nuw %struct.brace_s, ptr %129, i32 0, i32 2
  %131 = load i64, ptr %130, align 8, !tbaa !321
  %132 = add nsw i64 %131, 1
  store i64 %132, ptr %11, align 8, !tbaa !9
  br label %143

133:                                              ; preds = %120
  %134 = load i64, ptr %13, align 8, !tbaa !9
  %135 = getelementptr inbounds [65 x %struct.brace_s], ptr %12, i64 0, i64 %134
  %136 = getelementptr inbounds nuw %struct.brace_s, ptr %135, i32 0, i32 1
  %137 = load i8, ptr %136, align 1, !tbaa !322, !range !124, !noundef !125
  %138 = trunc i8 %137 to i1
  br i1 %138, label %139, label %142

139:                                              ; preds = %133
  %140 = load i64, ptr %15, align 8, !tbaa !9
  %141 = add nsw i64 %140, 1
  store i64 %141, ptr %11, align 8, !tbaa !9
  br label %142

142:                                              ; preds = %139, %133
  br label %143

143:                                              ; preds = %142, %127
  br label %144

144:                                              ; preds = %143, %119
  br label %145

145:                                              ; preds = %144, %108
  store i32 8, ptr %16, align 4
  br label %150

146:                                              ; preds = %96
  br label %147

147:                                              ; preds = %146
  %148 = load i64, ptr %20, align 8, !tbaa !9
  %149 = add nsw i64 %148, 2
  store i64 %149, ptr %20, align 8, !tbaa !9
  br label %91, !llvm.loop !419

150:                                              ; preds = %145, %95
  call void @llvm.lifetime.end.p0(i64 8, ptr %20) #13
  br label %151

151:                                              ; preds = %150
  store i32 0, ptr %16, align 4
  br label %152

152:                                              ; preds = %151, %89, %84
  call void @llvm.lifetime.end.p0(i64 1, ptr %18) #13
  call void @llvm.lifetime.end.p0(i64 1, ptr %17) #13
  %153 = load i32, ptr %16, align 4
  switch i32 %153, label %158 [
    i32 0, label %154
    i32 4, label %155
  ]

154:                                              ; preds = %152
  br label %155

155:                                              ; preds = %154, %152
  %156 = load i64, ptr %15, align 8, !tbaa !9
  %157 = add nsw i64 %156, 1
  store i64 %157, ptr %15, align 8, !tbaa !9
  br label %28, !llvm.loop !420

158:                                              ; preds = %152, %33
  call void @llvm.lifetime.end.p0(i64 8, ptr %15) #13
  %159 = load i32, ptr %16, align 4
  switch i32 %159, label %174 [
    i32 2, label %160
  ]

160:                                              ; preds = %158
  %161 = load i64, ptr %13, align 8, !tbaa !9
  %162 = icmp ne i64 %161, 0
  br i1 %162, label %163, label %164

163:                                              ; preds = %160
  store i8 0, ptr %10, align 1, !tbaa !132
  br label %164

164:                                              ; preds = %163, %160
  %165 = load ptr, ptr %9, align 8, !tbaa !226
  %166 = icmp ne ptr %165, null
  br i1 %166, label %167, label %172

167:                                              ; preds = %164
  %168 = load i8, ptr %10, align 1, !tbaa !132, !range !124, !noundef !125
  %169 = trunc i8 %168 to i1
  %170 = load ptr, ptr %9, align 8, !tbaa !226
  %171 = zext i1 %169 to i8
  store i8 %171, ptr %170, align 1, !tbaa !132
  br label %172

172:                                              ; preds = %167, %164
  %173 = load i64, ptr %11, align 8, !tbaa !9
  store i64 %173, ptr %5, align 8
  store i32 1, ptr %16, align 4
  br label %174

174:                                              ; preds = %172, %158
  call void @llvm.lifetime.end.p0(i64 8, ptr %14) #13
  call void @llvm.lifetime.end.p0(i64 8, ptr %13) #13
  call void @llvm.lifetime.end.p0(i64 1040, ptr %12) #13
  call void @llvm.lifetime.end.p0(i64 8, ptr %11) #13
  call void @llvm.lifetime.end.p0(i64 1, ptr %10) #13
  %175 = load i64, ptr %5, align 8
  ret i64 %175
}