; Function Attrs: nofree nounwind memory(argmem: readwrite) uwtable
define internal fastcc i64 @find_matching_brace(ptr noundef readonly %0, i64 noundef %1, ptr noundef readonly %2, ptr noundef writeonly %3) unnamed_addr #5 {
  %5 = alloca [65 x %struct.brace_s], align 16
  %.not = icmp eq ptr %3, null
  br i1 %.not, label %7, label %6

6:                                                ; preds = %4
  store i8 0, ptr %3, align 1, !tbaa !223
  br label %7

7:                                                ; preds = %6, %4
  call void @llvm.lifetime.start.p0(i64 1040, ptr nonnull %5) #32
  %8 = icmp eq ptr %2, null
  br i1 %8, label %.thread98, label %ic_strlen.exit

ic_strlen.exit:                                   ; preds = %7
  %9 = tail call i64 @strlen(ptr noundef nonnull readonly dereferenceable(1) %2) #33
  %10 = icmp eq ptr %0, null
  %.not144 = icmp slt i64 %9, 1
  %11 = icmp sgt i64 %9, 1
  %12 = add nsw i64 %1, -1
  br i1 %11, label %ic_strlen.exit.split.us, label %ic_strlen.exit.split

ic_strlen.exit.split.us:                          ; preds = %ic_strlen.exit, %..loopexit_crit_edge.us
  %.066.us = phi i64 [ %.268.ph.us, %..loopexit_crit_edge.us ], [ -1, %ic_strlen.exit ]
  %.060.us = phi i64 [ %.363.ph.us, %..loopexit_crit_edge.us ], [ 0, %ic_strlen.exit ]
  %.056.us = phi i8 [ %.258.ph.us, %..loopexit_crit_edge.us ], [ 1, %ic_strlen.exit ]
  %.055.us = phi i64 [ %59, %..loopexit_crit_edge.us ], [ 0, %ic_strlen.exit ]
  br i1 %10, label %ic_strlen.exit79.us, label %13

13:                                               ; preds = %ic_strlen.exit.split.us
  %14 = tail call i64 @strlen(ptr noundef nonnull readonly dereferenceable(1) %0) #33
  %15 = tail call noundef range(i64 0, -9223372036854775808) i64 @llvm.smax.i64(i64 %14, i64 0)
  br label %ic_strlen.exit79.us

ic_strlen.exit79.us:                              ; preds = %13, %ic_strlen.exit.split.us
  %.0.i78.us = phi i64 [ %15, %13 ], [ 0, %ic_strlen.exit.split.us ]
  %.not75.us = icmp samesign ult i64 %.055.us, %.0.i78.us
  br i1 %.not75.us, label %16, label %.thread98.loopexit

16:                                               ; preds = %ic_strlen.exit79.us
  %17 = getelementptr inbounds nuw i8, ptr %0, i64 %.055.us
  %18 = load i8, ptr %17, align 1, !tbaa !4
  br i1 %.not144, label %.preheader.us.preheader, label %.lr.ph.us

.preheader.us.preheader:                          ; preds = %45, %16
  br label %.preheader.us

19:                                               ; preds = %.preheader.us
  %20 = add nuw nsw i64 %.0111.us, 2
  %21 = icmp sgt i64 %9, %20
  br i1 %21, label %.preheader.us, label %..loopexit_crit_edge.us, !llvm.loop !360

.preheader.us:                                    ; preds = %.preheader.us.preheader, %19
  %.0111.us = phi i64 [ %20, %19 ], [ 1, %.preheader.us.preheader ]
  %22 = getelementptr inbounds nuw i8, ptr %2, i64 %.0111.us
  %23 = load i8, ptr %22, align 1, !tbaa !4
  %24 = icmp eq i8 %18, %23
  br i1 %24, label %25, label %19

25:                                               ; preds = %.preheader.us
  %26 = icmp slt i64 %.060.us, 1
  br i1 %26, label %..loopexit_crit_edge.us, label %27

27:                                               ; preds = %25
  %28 = add nsw i64 %.060.us, -1
  %29 = getelementptr inbounds nuw [65 x %struct.brace_s], ptr %5, i64 0, i64 %28
  %30 = load i8, ptr %29, align 16, !tbaa !299
  %.not74.us = icmp eq i8 %30, %18
  br i1 %.not74.us, label %31, label %..loopexit_crit_edge.us

31:                                               ; preds = %27
  %32 = icmp eq i64 %.055.us, %12
  br i1 %32, label %38, label %33

33:                                               ; preds = %31
  %34 = getelementptr inbounds nuw [65 x %struct.brace_s], ptr %5, i64 0, i64 %28, i32 1
  %35 = load i8, ptr %34, align 1, !tbaa !302, !range !117, !noundef !118
  %36 = trunc nuw i8 %35 to i1
  %37 = add nuw nsw i64 %.055.us, 1
  %spec.select.us = select i1 %36, i64 %37, i64 %.066.us
  br label %..loopexit_crit_edge.us

38:                                               ; preds = %31
  %39 = getelementptr inbounds nuw [65 x %struct.brace_s], ptr %5, i64 0, i64 %28, i32 2
  %40 = load i64, ptr %39, align 8, !tbaa !301
  %41 = add nsw i64 %40, 1
  br label %..loopexit_crit_edge.us

.lr.ph.us:                                        ; preds = %16, %45
  %.049110.us = phi i64 [ %46, %45 ], [ 0, %16 ]
  %42 = getelementptr inbounds nuw i8, ptr %2, i64 %.049110.us
  %43 = load i8, ptr %42, align 1, !tbaa !4
  %44 = icmp eq i8 %18, %43
  br i1 %44, label %48, label %45

45:                                               ; preds = %.lr.ph.us
  %46 = add nuw nsw i64 %.049110.us, 2
  %47 = icmp sgt i64 %9, %46
  br i1 %47, label %.lr.ph.us, label %.preheader.us.preheader, !llvm.loop !361

48:                                               ; preds = %.lr.ph.us
  %49 = icmp sgt i64 %.060.us, 63
  br i1 %49, label %.loopexit105, label %.thread86.us

.thread86.us:                                     ; preds = %48
  %50 = or disjoint i64 %.049110.us, 1
  %51 = getelementptr inbounds nuw i8, ptr %2, i64 %50
  %52 = load i8, ptr %51, align 1, !tbaa !4
  %53 = getelementptr inbounds [65 x %struct.brace_s], ptr %5, i64 0, i64 %.060.us
  store i8 %52, ptr %53, align 16, !tbaa !299
  %54 = getelementptr inbounds nuw i8, ptr %53, i64 8
  store i64 %.055.us, ptr %54, align 8, !tbaa !301
  %55 = icmp eq i64 %.055.us, %12
  %56 = getelementptr inbounds nuw i8, ptr %53, i64 1
  %57 = zext i1 %55 to i8
  store i8 %57, ptr %56, align 1, !tbaa !302
  %58 = add nsw i64 %.060.us, 1
  br label %..loopexit_crit_edge.us

..loopexit_crit_edge.us:                          ; preds = %19, %.thread86.us, %38, %33, %27, %25
  %.268.ph.us = phi i64 [ %.066.us, %.thread86.us ], [ %spec.select.us, %33 ], [ %.066.us, %27 ], [ %.066.us, %25 ], [ %41, %38 ], [ %.066.us, %19 ]
  %.363.ph.us = phi i64 [ %58, %.thread86.us ], [ %28, %33 ], [ %.060.us, %27 ], [ %.060.us, %25 ], [ %28, %38 ], [ %.060.us, %19 ]
  %.258.ph.us = phi i8 [ %.056.us, %.thread86.us ], [ %.056.us, %33 ], [ 0, %27 ], [ 0, %25 ], [ %.056.us, %38 ], [ %.056.us, %19 ]
  %59 = add nuw nsw i64 %.055.us, 1
  br label %ic_strlen.exit.split.us, !llvm.loop !362

ic_strlen.exit.split:                             ; preds = %ic_strlen.exit
  br i1 %.not144, label %.thread98, label %ic_strlen.exit.split.split.us.preheader

ic_strlen.exit.split.split.us.preheader:          ; preds = %ic_strlen.exit.split
  %60 = getelementptr inbounds nuw i8, ptr %2, i64 1
  br label %ic_strlen.exit.split.split.us

ic_strlen.exit.split.split.us:                    ; preds = %ic_strlen.exit.split.split.us.preheader, %..preheader_crit_edge.us126
  %.060.us115 = phi i64 [ %.363.ph.us123, %..preheader_crit_edge.us126 ], [ 0, %ic_strlen.exit.split.split.us.preheader ]
  %.055.us116 = phi i64 [ %76, %..preheader_crit_edge.us126 ], [ 0, %ic_strlen.exit.split.split.us.preheader ]
  br i1 %10, label %ic_strlen.exit79.us117, label %61

61:                                               ; preds = %ic_strlen.exit.split.split.us
  %62 = tail call i64 @strlen(ptr noundef nonnull readonly dereferenceable(1) %0) #33
  %63 = tail call noundef range(i64 0, -9223372036854775808) i64 @llvm.smax.i64(i64 %62, i64 0)
  br label %ic_strlen.exit79.us117

ic_strlen.exit79.us117:                           ; preds = %61, %ic_strlen.exit.split.split.us
  %.0.i78.us118 = phi i64 [ %63, %61 ], [ 0, %ic_strlen.exit.split.split.us ]
  %.not75.us119 = icmp samesign ult i64 %.055.us116, %.0.i78.us118
  br i1 %.not75.us119, label %.lr.ph.us125, label %.thread98

.lr.ph.us125:                                     ; preds = %ic_strlen.exit79.us117
  %.pre = load i8, ptr %2, align 1, !tbaa !4
  %64 = getelementptr inbounds nuw i8, ptr %0, i64 %.055.us116
  %65 = load i8, ptr %64, align 1, !tbaa !4
  %66 = icmp eq i8 %65, %.pre
  br i1 %66, label %67, label %..preheader_crit_edge.us126

67:                                               ; preds = %.lr.ph.us125
  %68 = icmp sgt i64 %.060.us115, 63
  br i1 %68, label %.loopexit105, label %.thread86.us122

.thread86.us122:                                  ; preds = %67
  %69 = load i8, ptr %60, align 1, !tbaa !4
  %70 = getelementptr inbounds [65 x %struct.brace_s], ptr %5, i64 0, i64 %.060.us115
  store i8 %69, ptr %70, align 16, !tbaa !299
  %71 = getelementptr inbounds nuw i8, ptr %70, i64 8
  store i64 %.055.us116, ptr %71, align 8, !tbaa !301
  %72 = icmp eq i64 %.055.us116, %12
  %73 = getelementptr inbounds nuw i8, ptr %70, i64 1
  %74 = zext i1 %72 to i8
  store i8 %74, ptr %73, align 1, !tbaa !302
  %75 = add nsw i64 %.060.us115, 1
  br label %..preheader_crit_edge.us126

..preheader_crit_edge.us126:                      ; preds = %.lr.ph.us125, %.thread86.us122
  %.363.ph.us123 = phi i64 [ %75, %.thread86.us122 ], [ %.060.us115, %.lr.ph.us125 ]
  %76 = add nuw nsw i64 %.055.us116, 1
  br label %ic_strlen.exit.split.split.us, !llvm.loop !362

.thread98.loopexit:                               ; preds = %ic_strlen.exit79.us
  %77 = and i8 %.056.us, 1
  br label %.thread98

.thread98:                                        ; preds = %ic_strlen.exit79.us117, %ic_strlen.exit.split, %7, %.thread98.loopexit
  %.us-phi = phi i64 [ %.066.us, %.thread98.loopexit ], [ -1, %7 ], [ -1, %ic_strlen.exit.split ], [ -1, %ic_strlen.exit79.us117 ]
  %.us-phi113 = phi i64 [ %.060.us, %.thread98.loopexit ], [ 0, %7 ], [ 0, %ic_strlen.exit.split ], [ %.060.us115, %ic_strlen.exit79.us117 ]
  %.us-phi114 = phi i8 [ %77, %.thread98.loopexit ], [ 1, %7 ], [ 1, %ic_strlen.exit.split ], [ 1, %ic_strlen.exit79.us117 ]
  br i1 %.not, label %.loopexit105, label %78

78:                                               ; preds = %.thread98
  %.not76 = icmp eq i64 %.us-phi113, 0
  %79 = select i1 %.not76, i8 %.us-phi114, i8 0
  store i8 %79, ptr %3, align 1, !tbaa !223
  br label %.loopexit105

.loopexit105:                                     ; preds = %67, %48, %.thread98, %78
  %.3 = phi i64 [ %.us-phi, %78 ], [ %.us-phi, %.thread98 ], [ -1, %48 ], [ -1, %67 ]
  call void @llvm.lifetime.end.p0(i64 1040, ptr nonnull %5) #32
  ret i64 %.3
}